target datalayout = "e-m:e-p270:32:32-p271:32:32-p272:64:64-i64:64-i128:128-f80:128-n8:16:32:64-S128"
target triple = "x86_64-pc-linux-gnu"

%struct.UCaseContext = type { ptr, i32, i32, i32, i32, i32, i8, i8, i8, i8 }

; Function Attrs: mustprogress nounwind uwtable
define internal noundef i32 @_ZN6icu_7712_GLOBAL__N_125utf16_caseContextIteratorEPva(ptr noundef %0, i8 noundef signext %1) #5 {
  %3 = alloca i32, align 4
  %4 = alloca ptr, align 8
  %5 = alloca i8, align 1
  %6 = alloca ptr, align 8
  %7 = alloca i32, align 4
  %8 = alloca i16, align 2
  %9 = alloca i32, align 4
  %10 = alloca i16, align 2
  store ptr %0, ptr %4, align 8, !tbaa !14
  store i8 %1, ptr %5, align 1, !tbaa !35
  call void @llvm.lifetime.start.p0(i64 8, ptr %6) #9
  %11 = load ptr, ptr %4, align 8, !tbaa !14
  store ptr %11, ptr %6, align 8, !tbaa !36
  call void @llvm.lifetime.start.p0(i64 4, ptr %7) #9
  %12 = load i8, ptr %5, align 1, !tbaa !35
  %13 = sext i8 %12 to i32
  %14 = icmp slt i32 %13, 0
  br i1 %14, label %15, label %24

15:                                               ; preds = %2
  %16 = load ptr, ptr %6, align 8, !tbaa !36
  %17 = getelementptr inbounds nuw %struct.UCaseContext, ptr %16, i32 0, i32 4
  %18 = load i32, ptr %17, align 4, !tbaa !32
  %19 = load ptr, ptr %6, align 8, !tbaa !36
  %20 = getelementptr inbounds nuw %struct.UCaseContext, ptr %19, i32 0, i32 2
  store i32 %18, ptr %20, align 4, !tbaa !38
  %21 = load i8, ptr %5, align 1, !tbaa !35
  %22 = load ptr, ptr %6, align 8, !tbaa !36
  %23 = getelementptr inbounds nuw %struct.UCaseContext, ptr %22, i32 0, i32 6
  store i8 %21, ptr %23, align 4, !tbaa !39
  br label %42

24:                                               ; preds = %2
  %25 = load i8, ptr %5, align 1, !tbaa !35
  %26 = sext i8 %25 to i32
  %27 = icmp sgt i32 %26, 0
  br i1 %27, label %28, label %37

28:                                               ; preds = %24
  %29 = load ptr, ptr %6, align 8, !tbaa !36
  %30 = getelementptr inbounds nuw %struct.UCaseContext, ptr %29, i32 0, i32 5
  %31 = load i32, ptr %30, align 8, !tbaa !33
  %32 = load ptr, ptr %6, align 8, !tbaa !36
  %33 = getelementptr inbounds nuw %struct.UCaseContext, ptr %32, i32 0, i32 2
  store i32 %31, ptr %33, align 4, !tbaa !38
  %34 = load i8, ptr %5, align 1, !tbaa !35
  %35 = load ptr, ptr %6, align 8, !tbaa !36
  %36 = getelementptr inbounds nuw %struct.UCaseContext, ptr %35, i32 0, i32 6
  store i8 %34, ptr %36, align 4, !tbaa !39
  br label %41

37:                                               ; preds = %24
  %38 = load ptr, ptr %6, align 8, !tbaa !36
  %39 = getelementptr inbounds nuw %struct.UCaseContext, ptr %38, i32 0, i32 6
  %40 = load i8, ptr %39, align 4, !tbaa !39
  store i8 %40, ptr %5, align 1, !tbaa !35
  br label %41

41:                                               ; preds = %37, %28
  br label %42

42:                                               ; preds = %41, %15
  %43 = load i8, ptr %5, align 1, !tbaa !35
  %44 = sext i8 %43 to i32
  %45 = icmp slt i32 %44, 0
  br i1 %45, label %46, label %109

46:                                               ; preds = %42
  %47 = load ptr, ptr %6, align 8, !tbaa !36
  %48 = getelementptr inbounds nuw %struct.UCaseContext, ptr %47, i32 0, i32 1
  %49 = load i32, ptr %48, align 8, !tbaa !40
  %50 = load ptr, ptr %6, align 8, !tbaa !36
  %51 = getelementptr inbounds nuw %struct.UCaseContext, ptr %50, i32 0, i32 2
  %52 = load i32, ptr %51, align 4, !tbaa !38
  %53 = icmp slt i32 %49, %52
  br i1 %53, label %54, label %108

54:                                               ; preds = %46
  br label %55

55:                                               ; preds = %54
  %56 = load ptr, ptr %6, align 8, !tbaa !36
  %57 = getelementptr inbounds nuw %struct.UCaseContext, ptr %56, i32 0, i32 0
  %58 = load ptr, ptr %57, align 8, !tbaa !15
  %59 = load ptr, ptr %6, align 8, !tbaa !36
  %60 = getelementptr inbounds nuw %struct.UCaseContext, ptr %59, i32 0, i32 2
  %61 = load i32, ptr %60, align 4, !tbaa !38
  %62 = add nsw i32 %61, -1
  store i32 %62, ptr %60, align 4, !tbaa !38
  %63 = sext i32 %62 to i64
  %64 = getelementptr inbounds i16, ptr %58, i64 %63
  %65 = load i16, ptr %64, align 2, !tbaa !24
  %66 = zext i16 %65 to i32
  store i32 %66, ptr %7, align 4, !tbaa !3
  %67 = load i32, ptr %7, align 4, !tbaa !3
  %68 = and i32 %67, -1024
  %69 = icmp eq i32 %68, 56320
  br i1 %69, label %70, label %104

70:                                               ; preds = %55
  call void @llvm.lifetime.start.p0(i64 2, ptr %8) #9
  %71 = load ptr, ptr %6, align 8, !tbaa !36
  %72 = getelementptr inbounds nuw %struct.UCaseContext, ptr %71, i32 0, i32 2
  %73 = load i32, ptr %72, align 4, !tbaa !38
  %74 = load ptr, ptr %6, align 8, !tbaa !36
  %75 = getelementptr inbounds nuw %struct.UCaseContext, ptr %74, i32 0, i32 1
  %76 = load i32, ptr %75, align 8, !tbaa !40
  %77 = icmp sgt i32 %73, %76
  br i1 %77, label %78, label %103

78:                                               ; preds = %70
  %79 = load ptr, ptr %6, align 8, !tbaa !36
  %80 = getelementptr inbounds nuw %struct.UCaseContext, ptr %79, i32 0, i32 0
  %81 = load ptr, ptr %80, align 8, !tbaa !15
  %82 = load ptr, ptr %6, align 8, !tbaa !36
  %83 = getelementptr inbounds nuw %struct.UCaseContext, ptr %82, i32 0, i32 2
  %84 = load i32, ptr %83, align 4, !tbaa !38
  %85 = sub nsw i32 %84, 1
  %86 = sext i32 %85 to i64
  %87 = getelementptr inbounds i16, ptr %81, i64 %86
  %88 = load i16, ptr %87, align 2, !tbaa !24
  store i16 %88, ptr %8, align 2, !tbaa !26
  %89 = zext i16 %88 to i32
  %90 = and i32 %89, -1024
  %91 = icmp eq i32 %90, 55296
  br i1 %91, label %92, label %103

92:                                               ; preds = %78
  %93 = load ptr, ptr %6, align 8, !tbaa !36
  %94 = getelementptr inbounds nuw %struct.UCaseContext, ptr %93, i32 0, i32 2
  %95 = load i32, ptr %94, align 4, !tbaa !38
  %96 = add nsw i32 %95, -1
  store i32 %96, ptr %94, align 4, !tbaa !38
  %97 = load i16, ptr %8, align 2, !tbaa !26
  %98 = zext i16 %97 to i32
  %99 = shl i32 %98, 10
  %100 = load i32, ptr %7, align 4, !tbaa !3
  %101 = add nsw i32 %99, %100
  %102 = sub nsw i32 %101, 56613888
  store i32 %102, ptr %7, align 4, !tbaa !3
  br label %103

103:                                              ; preds = %92, %78, %70
  call void @llvm.lifetime.end.p0(i64 2, ptr %8) #9
  br label %104

104:                                              ; preds = %103, %55
  br label %105

105:                                              ; preds = %104
  br label %106

106:                                              ; preds = %105
  %107 = load i32, ptr %7, align 4, !tbaa !3
  store i32 %107, ptr %3, align 4
  store i32 1, ptr %9, align 4
  br label %172

108:                                              ; preds = %46
  br label %171

109:                                              ; preds = %42
  %110 = load ptr, ptr %6, align 8, !tbaa !36
  %111 = getelementptr inbounds nuw %struct.UCaseContext, ptr %110, i32 0, i32 2
  %112 = load i32, ptr %111, align 4, !tbaa !38
  %113 = load ptr, ptr %6, align 8, !tbaa !36
  %114 = getelementptr inbounds nuw %struct.UCaseContext, ptr %113, i32 0, i32 3
  %115 = load i32, ptr %114, align 8, !tbaa !17
  %116 = icmp slt i32 %112, %115
  br i1 %116, label %117, label %170

117:                                              ; preds = %109
  br label %118

118:                                              ; preds = %117
  %119 = load ptr, ptr %6, align 8, !tbaa !36
  %120 = getelementptr inbounds nuw %struct.UCaseContext, ptr %119, i32 0, i32 0
  %121 = load ptr, ptr %120, align 8, !tbaa !15
  %122 = load ptr, ptr %6, align 8, !tbaa !36
  %123 = getelementptr inbounds nuw %struct.UCaseContext, ptr %122, i32 0, i32 2
  %124 = load i32, ptr %123, align 4, !tbaa !38
  %125 = add nsw i32 %124, 1
  store i32 %125, ptr %123, align 4, !tbaa !38
  %126 = sext i32 %124 to i64
  %127 = getelementptr inbounds i16, ptr %121, i64 %126
  %128 = load i16, ptr %127, align 2, !tbaa !24
  %129 = zext i16 %128 to i32
  store i32 %129, ptr %7, align 4, !tbaa !3
  %130 = load i32, ptr %7, align 4, !tbaa !3
  %131 = and i32 %130, -1024
  %132 = icmp eq i32 %131, 55296
  br i1 %132, label %133, label %166

133:                                              ; preds = %118
  call void @llvm.lifetime.start.p0(i64 2, ptr %10) #9
  %134 = load ptr, ptr %6, align 8, !tbaa !36
  %135 = getelementptr inbounds nuw %struct.UCaseContext, ptr %134, i32 0, i32 2
  %136 = load i32, ptr %135, align 4, !tbaa !38
  %137 = load ptr, ptr %6, align 8, !tbaa !36
  %138 = getelementptr inbounds nuw %struct.UCaseContext, ptr %137, i32 0, i32 3
  %139 = load i32, ptr %138, align 8, !tbaa !17
  %140 = icmp ne i32 %136, %139
  br i1 %140, label %141, label %165

141:                                              ; preds = %133
  %142 = load ptr, ptr %6, align 8, !tbaa !36
  %143 = getelementptr inbounds nuw %struct.UCaseContext, ptr %142, i32 0, i32 0
  %144 = load ptr, ptr %143, align 8, !tbaa !15
  %145 = load ptr, ptr %6, align 8, !tbaa !36
  %146 = getelementptr inbounds nuw %struct.UCaseContext, ptr %145, i32 0, i32 2
  %147 = load i32, ptr %146, align 4, !tbaa !38
  %148 = sext i32 %147 to i64
  %149 = getelementptr inbounds i16, ptr %144, i64 %148
  %150 = load i16, ptr %149, align 2, !tbaa !24
  store i16 %150, ptr %10, align 2, !tbaa !26
  %151 = zext i16 %150 to i32
  %152 = and i32 %151, -1024
  %153 = icmp eq i32 %152, 56320
  br i1 %153, label %154, label %165

154:                                              ; preds = %141
  %155 = load ptr, ptr %6, align 8, !tbaa !36
  %156 = getelementptr inbounds nuw %struct.UCaseContext, ptr %155, i32 0, i32 2
  %157 = load i32, ptr %156, align 4, !tbaa !38
  %158 = add nsw i32 %157, 1
  store i32 %158, ptr %156, align 4, !tbaa !38
  %159 = load i32, ptr %7, align 4, !tbaa !3
  %160 = shl i32 %159, 10
  %161 = load i16, ptr %10, align 2, !tbaa !26
  %162 = zext i16 %161 to i32
  %163 = add nsw i32 %160, %162
  %164 = sub nsw i32 %163, 56613888
  store i32 %164, ptr %7, align 4, !tbaa !3
  br label %165

165:                                              ; preds = %154, %141, %133
  call void @llvm.lifetime.end.p0(i64 2, ptr %10) #9
  br label %166

166:                                              ; preds = %165, %118
  br label %167

167:                                              ; preds = %166
  br label %168

168:                                              ; preds = %167
  %169 = load i32, ptr %7, align 4, !tbaa !3
  store i32 %169, ptr %3, align 4
  store i32 1, ptr %9, align 4
  br label %172

170:                                              ; preds = %109
  br label %171

171:                                              ; preds = %170, %108
  store i32 -1, ptr %3, align 4
  store i32 1, ptr %9, align 4
  br label %172

172:                                              ; preds = %171, %168, %106
  call void @llvm.lifetime.end.p0(i64 4, ptr %7) #9
  call void @llvm.lifetime.end.p0(i64 8, ptr %6) #9
  %173 = load i32, ptr %3, align 4
  ret i32 %173
}