; Function Attrs: mustprogress nofree norecurse nosync nounwind willreturn memory(read, argmem: readwrite, inaccessiblemem: none) uwtable
define internal noundef range(i32 -1, 10559488) i32 @_ZN6icu_7712_GLOBAL__N_125utf16_caseContextIteratorEPva(ptr noundef captures(none) %0, i8 noundef signext %1) #4 {
  %3 = icmp slt i8 %1, 0
  br i1 %3, label %.critedge, label %8

.critedge:                                        ; preds = %2
  %4 = getelementptr inbounds nuw i8, ptr %0, i64 20
  %5 = load i32, ptr %4, align 4, !tbaa !18
  %6 = getelementptr inbounds nuw i8, ptr %0, i64 12
  store i32 %5, ptr %6, align 4, !tbaa !23
  %7 = getelementptr inbounds nuw i8, ptr %0, i64 28
  store i8 %1, ptr %7, align 4, !tbaa !24
  br label %._crit_edge50

8:                                                ; preds = %2
  %.not = icmp eq i8 %1, 0
  br i1 %.not, label %13, label %.critedge48

.critedge48:                                      ; preds = %8
  %9 = getelementptr inbounds nuw i8, ptr %0, i64 24
  %10 = load i32, ptr %9, align 8, !tbaa !19
  %11 = getelementptr inbounds nuw i8, ptr %0, i64 12
  store i32 %10, ptr %11, align 4, !tbaa !23
  %12 = getelementptr inbounds nuw i8, ptr %0, i64 28
  store i8 %1, ptr %12, align 4, !tbaa !24
  br label %._crit_edge

13:                                               ; preds = %8
  %14 = getelementptr inbounds nuw i8, ptr %0, i64 28
  %15 = load i8, ptr %14, align 4, !tbaa !24
  %16 = icmp slt i8 %15, 0
  %.phi.trans.insert51 = getelementptr inbounds nuw i8, ptr %0, i64 12
  %.pre52 = load i32, ptr %.phi.trans.insert51, align 4, !tbaa !23
  br i1 %16, label %._crit_edge50, label %._crit_edge

._crit_edge50:                                    ; preds = %13, %.critedge
  %17 = phi i32 [ %5, %.critedge ], [ %.pre52, %13 ]
  %18 = getelementptr inbounds nuw i8, ptr %0, i64 8
  %19 = load i32, ptr %18, align 8, !tbaa !25
  %20 = getelementptr inbounds nuw i8, ptr %0, i64 12
  %21 = icmp slt i32 %19, %17
  br i1 %21, label %22, label %71

22:                                               ; preds = %._crit_edge50
  %23 = load ptr, ptr %0, align 8, !tbaa !7
  %24 = add nsw i32 %17, -1
  store i32 %24, ptr %20, align 4, !tbaa !23
  %25 = sext i32 %24 to i64
  %26 = getelementptr inbounds i16, ptr %23, i64 %25
  %27 = load i16, ptr %26, align 2, !tbaa !14
  %28 = zext i16 %27 to i32
  %29 = and i32 %28, 64512
  %30 = icmp eq i32 %29, 56320
  %31 = icmp sgt i32 %24, %19
  %or.cond = and i1 %31, %30
  br i1 %or.cond, label %32, label %71

32:                                               ; preds = %22
  %33 = sext i32 %17 to i64
  %34 = getelementptr i16, ptr %23, i64 %33
  %35 = getelementptr i8, ptr %34, i64 -4
  %36 = load i16, ptr %35, align 2, !tbaa !14
  %37 = zext i16 %36 to i32
  %38 = and i32 %37, 64512
  %39 = icmp eq i32 %38, 55296
  br i1 %39, label %40, label %71

40:                                               ; preds = %32
  %41 = add nsw i32 %17, -2
  store i32 %41, ptr %20, align 4, !tbaa !23
  %42 = shl nuw nsw i32 %37, 10
  %43 = add nuw nsw i32 %28, -56613888
  %44 = add nsw i32 %43, %42
  br label %71

._crit_edge:                                      ; preds = %13, %.critedge48
  %45 = phi i32 [ %10, %.critedge48 ], [ %.pre52, %13 ]
  %46 = getelementptr inbounds nuw i8, ptr %0, i64 12
  %47 = getelementptr inbounds nuw i8, ptr %0, i64 16
  %48 = load i32, ptr %47, align 8, !tbaa !11
  %49 = icmp slt i32 %45, %48
  br i1 %49, label %50, label %71

50:                                               ; preds = %._crit_edge
  %51 = load ptr, ptr %0, align 8, !tbaa !7
  %52 = add nsw i32 %45, 1
  store i32 %52, ptr %46, align 4, !tbaa !23
  %53 = sext i32 %45 to i64
  %54 = getelementptr inbounds i16, ptr %51, i64 %53
  %55 = load i16, ptr %54, align 2, !tbaa !14
  %56 = zext i16 %55 to i32
  %57 = and i32 %56, 64512
  %58 = icmp ne i32 %57, 55296
  %.not46 = icmp eq i32 %52, %48
  %or.cond49 = select i1 %58, i1 true, i1 %.not46
  br i1 %or.cond49, label %71, label %59

59:                                               ; preds = %50
  %60 = sext i32 %52 to i64
  %61 = getelementptr inbounds i16, ptr %51, i64 %60
  %62 = load i16, ptr %61, align 2, !tbaa !14
  %63 = zext i16 %62 to i32
  %64 = and i32 %63, 64512
  %65 = icmp eq i32 %64, 56320
  br i1 %65, label %66, label %71

66:                                               ; preds = %59
  %67 = add nsw i32 %45, 2
  store i32 %67, ptr %46, align 4, !tbaa !23
  %68 = shl nuw nsw i32 %56, 10
  %69 = add nsw i32 %68, -56613888
  %70 = add nuw nsw i32 %69, %63
  br label %71

71:                                               ; preds = %._crit_edge50, %._crit_edge, %50, %66, %59, %22, %40, %32
  %.0 = phi i32 [ %28, %22 ], [ %44, %40 ], [ %28, %32 ], [ %56, %50 ], [ %70, %66 ], [ %56, %59 ], [ -1, %._crit_edge ], [ -1, %._crit_edge50 ]
  ret i32 %.0
}